target datalayout = "e-m:e-p270:32:32-p271:32:32-p272:64:64-i64:64-i128:128-f80:128-n8:16:32:64-S128"
target triple = "x86_64-pc-linux-gnu"

; Function Attrs: mustprogress nounwind uwtable
define hidden noundef zeroext i1 @_ZN4cvc58internal6theory11quantifiers4inst15TriggerTermInfo19isAtomicTriggerKindENS0_4kind6Kind_tE(i32 noundef %0) #5 align 2 {
  %2 = alloca i32, align 4
  store i32 %0, ptr %2, align 4, !tbaa !24
  %3 = load i32, ptr %2, align 4, !tbaa !24
  %4 = icmp eq i32 %3, 27
  br i1 %4, label %56, label %5

5:                                                ; preds = %1
  %6 = load i32, ptr %2, align 4, !tbaa !24
  %7 = icmp eq i32 %6, 215
  br i1 %7, label %56, label %8

8:                                                ; preds = %5
  %9 = load i32, ptr %2, align 4, !tbaa !24
  %10 = icmp eq i32 %9, 216
  br i1 %10, label %56, label %11

11:                                               ; preds = %8
  %12 = load i32, ptr %2, align 4, !tbaa !24
  %13 = icmp eq i32 %12, 224
  br i1 %13, label %56, label %14

14:                                               ; preds = %11
  %15 = load i32, ptr %2, align 4, !tbaa !24
  %16 = icmp eq i32 %15, 225
  br i1 %16, label %56, label %17

17:                                               ; preds = %14
  %18 = load i32, ptr %2, align 4, !tbaa !24
  %19 = icmp eq i32 %18, 226
  br i1 %19, label %56, label %20

20:                                               ; preds = %17
  %21 = load i32, ptr %2, align 4, !tbaa !24
  %22 = icmp eq i32 %21, 254
  br i1 %22, label %56, label %23

23:                                               ; preds = %20
  %24 = load i32, ptr %2, align 4, !tbaa !24
  %25 = icmp eq i32 %24, 255
  br i1 %25, label %56, label %26

26:                                               ; preds = %23
  %27 = load i32, ptr %2, align 4, !tbaa !24
  %28 = icmp eq i32 %27, 257
  br i1 %28, label %56, label %29

29:                                               ; preds = %26
  %30 = load i32, ptr %2, align 4, !tbaa !24
  %31 = icmp eq i32 %30, 256
  br i1 %31, label %56, label %32

32:                                               ; preds = %29
  %33 = load i32, ptr %2, align 4, !tbaa !24
  %34 = icmp eq i32 %33, 258
  br i1 %34, label %56, label %35

35:                                               ; preds = %32
  %36 = load i32, ptr %2, align 4, !tbaa !24
  %37 = icmp eq i32 %36, 259
  br i1 %37, label %56, label %38

38:                                               ; preds = %35
  %39 = load i32, ptr %2, align 4, !tbaa !24
  %40 = icmp eq i32 %39, 248
  br i1 %40, label %56, label %41

41:                                               ; preds = %38
  %42 = load i32, ptr %2, align 4, !tbaa !24
  %43 = icmp eq i32 %42, 36
  br i1 %43, label %56, label %44

44:                                               ; preds = %41
  %45 = load i32, ptr %2, align 4, !tbaa !24
  %46 = icmp eq i32 %45, 38
  br i1 %46, label %56, label %47

47:                                               ; preds = %44
  %48 = load i32, ptr %2, align 4, !tbaa !24
  %49 = icmp eq i32 %48, 30
  br i1 %49, label %56, label %50

50:                                               ; preds = %47
  %51 = load i32, ptr %2, align 4, !tbaa !24
  %52 = icmp eq i32 %51, 317
  br i1 %52, label %56, label %53

53:                                               ; preds = %50
  %54 = load i32, ptr %2, align 4, !tbaa !24
  %55 = icmp eq i32 %54, 345
  br label %56

56:                                               ; preds = %53, %50, %47, %44, %41, %38, %35, %32, %29, %26, %23, %20, %17, %14, %11, %8, %5, %1
  %57 = phi i1 [ true, %50 ], [ true, %47 ], [ true, %44 ], [ true, %41 ], [ true, %38 ], [ true, %35 ], [ true, %32 ], [ true, %29 ], [ true, %26 ], [ true, %23 ], [ true, %20 ], [ true, %17 ], [ true, %14 ], [ true, %11 ], [ true, %8 ], [ true, %5 ], [ true, %1 ], [ %55, %53 ]
  ret i1 %57
}