; Function Attrs: mustprogress nofree norecurse nosync nounwind willreturn memory(none) uwtable
define hidden noundef zeroext i1 @_ZN4cvc58internal6theory11quantifiers4inst15TriggerTermInfo19isAtomicTriggerKindENS0_4kind6Kind_tE(i32 noundef %0) local_unnamed_addr #6 align 2 {
  switch i32 %0, label %2 [
    i32 317, label %switch.edge
    i32 259, label %switch.edge
    i32 258, label %switch.edge
    i32 257, label %switch.edge
    i32 256, label %switch.edge
    i32 255, label %switch.edge
    i32 254, label %switch.edge
    i32 248, label %switch.edge
    i32 226, label %switch.edge
    i32 225, label %switch.edge
    i32 224, label %switch.edge
    i32 216, label %switch.edge
    i32 215, label %switch.edge
    i32 38, label %switch.edge
    i32 36, label %switch.edge
    i32 30, label %switch.edge
    i32 27, label %switch.edge
    i32 345, label %switch.edge
  ]

2:                                                ; preds = %1
  br label %switch.edge

switch.edge:                                      ; preds = %1, %1, %1, %1, %1, %1, %1, %1, %1, %1, %1, %1, %1, %1, %1, %1, %1, %1, %2
  %3 = phi i1 [ true, %1 ], [ false, %2 ], [ true, %1 ], [ true, %1 ], [ true, %1 ], [ true, %1 ], [ true, %1 ], [ true, %1 ], [ true, %1 ], [ true, %1 ], [ true, %1 ], [ true, %1 ], [ true, %1 ], [ true, %1 ], [ true, %1 ], [ true, %1 ], [ true, %1 ], [ true, %1 ], [ true, %1 ]
  ret i1 %3
}